target datalayout = "e-m:e-p270:32:32-p271:32:32-p272:64:64-i64:64-i128:128-f80:128-n8:16:32:64-S128"
target triple = "x86_64-pc-linux-gnu"

@.str.1 = private unnamed_addr constant [101 x i8] c"generated/home/dtcxzyw/WorkSpace/Projects/compilers/llvm-opt-benchmark/bench/hdf5/hdf5/src/H5Gname.c\00", align 1
@H5E_SYM_g = external global i64, align 8
@H5E_CANTCREATE_g = external global i64, align 8
@.str.16 = private unnamed_addr constant [32 x i8] c"can't create ref-counted string\00", align 1
@__func__.H5G__name_move_path = private unnamed_addr constant [20 x i8] c"H5G__name_move_path\00", align 1

; Function Attrs: nounwind uwtable
define internal i32 @H5G__name_move_path(ptr noundef %0, ptr noundef %1, ptr noundef %2, ptr noundef %3) #0 {
  %5 = alloca ptr, align 8
  %6 = alloca ptr, align 8
  %7 = alloca ptr, align 8
  %8 = alloca ptr, align 8
  %9 = alloca ptr, align 8
  %10 = alloca i64, align 8
  %11 = alloca i64, align 8
  %12 = alloca i32, align 4
  %13 = alloca i8, align 1
  %14 = alloca ptr, align 8
  %15 = alloca ptr, align 8
  %16 = alloca i64, align 8
  %17 = alloca ptr, align 8
  %18 = alloca i64, align 8
  %19 = alloca i64, align 8
  %20 = alloca ptr, align 8
  store ptr %0, ptr %5, align 8
  store ptr %1, ptr %6, align 8
  store ptr %2, ptr %7, align 8
  store ptr %3, ptr %8, align 8
  store i32 0, ptr %12, align 4
  store i8 0, ptr %13, align 1
  %21 = load ptr, ptr %5, align 8
  %22 = load ptr, ptr %21, align 8
  %23 = call ptr @H5RS_get_str(ptr noundef %22)
  store ptr %23, ptr %9, align 8
  %24 = load ptr, ptr %6, align 8
  %25 = call i64 @strlen(ptr noundef %24) #6
  store i64 %25, ptr %11, align 8
  %26 = load ptr, ptr %9, align 8
  %27 = call i64 @strlen(ptr noundef %26) #6
  store i64 %27, ptr %10, align 8
  %28 = load i64, ptr %11, align 8
  %29 = load i64, ptr %10, align 8
  %30 = icmp ult i64 %28, %29
  br i1 %30, label %31, label %118

31:                                               ; preds = %4
  %32 = load i64, ptr %10, align 8
  %33 = load i64, ptr %11, align 8
  %34 = sub i64 %32, %33
  store i64 %34, ptr %16, align 8
  store i64 0, ptr %19, align 8
  br label %35

35:                                               ; preds = %47, %31
  %36 = load ptr, ptr %7, align 8
  %37 = load i64, ptr %19, align 8
  %38 = getelementptr inbounds i8, ptr %36, i64 %37
  %39 = load i8, ptr %38, align 1
  %40 = sext i8 %39 to i32
  %41 = load ptr, ptr %8, align 8
  %42 = load i64, ptr %19, align 8
  %43 = getelementptr inbounds i8, ptr %41, i64 %42
  %44 = load i8, ptr %43, align 1
  %45 = sext i8 %44 to i32
  %46 = icmp eq i32 %40, %45
  br i1 %46, label %47, label %50

47:                                               ; preds = %35
  %48 = load i64, ptr %19, align 8
  %49 = add i64 %48, 1
  store i64 %49, ptr %19, align 8
  br label %35

50:                                               ; preds = %35
  br label %51

51:                                               ; preds = %58, %50
  %52 = load ptr, ptr %7, align 8
  %53 = load i64, ptr %19, align 8
  %54 = getelementptr inbounds i8, ptr %52, i64 %53
  %55 = load i8, ptr %54, align 1
  %56 = sext i8 %55 to i32
  %57 = icmp ne i32 %56, 47
  br i1 %57, label %58, label %61

58:                                               ; preds = %51
  %59 = load i64, ptr %19, align 8
  %60 = add i64 %59, -1
  store i64 %60, ptr %19, align 8
  br label %51

61:                                               ; preds = %51
  %62 = load i64, ptr %19, align 8
  %63 = add i64 %62, 1
  store i64 %63, ptr %19, align 8
  %64 = load ptr, ptr %7, align 8
  %65 = load i64, ptr %19, align 8
  %66 = sub i64 %65, 1
  %67 = getelementptr inbounds i8, ptr %64, i64 %66
  store ptr %67, ptr %15, align 8
  %68 = load ptr, ptr %8, align 8
  %69 = load i64, ptr %19, align 8
  %70 = sub i64 %69, 1
  %71 = getelementptr inbounds i8, ptr %68, i64 %70
  store ptr %71, ptr %14, align 8
  %72 = load ptr, ptr %9, align 8
  store ptr %72, ptr %17, align 8
  %73 = load i64, ptr %16, align 8
  %74 = load ptr, ptr %15, align 8
  %75 = call i64 @strlen(ptr noundef %74) #6
  %76 = sub i64 %73, %75
  store i64 %76, ptr %18, align 8
  %77 = call ptr @H5RS_create(ptr noundef null)
  store ptr %77, ptr %20, align 8
  %78 = icmp eq ptr null, %77
  br i1 %78, label %79, label %94

79:                                               ; preds = %61
  br label %80

80:                                               ; preds = %79
  br label %81

81:                                               ; preds = %80
  br label %82

82:                                               ; preds = %81
  %83 = load i64, ptr @H5E_SYM_g, align 8
  %84 = load i64, ptr @H5E_CANTCREATE_g, align 8
  %85 = call i32 (ptr, ptr, i32, i64, i64, ptr, ...) @H5E_printf_stack(ptr noundef @.str.1, ptr noundef @__func__.H5G__name_move_path, i32 noundef 609, i64 noundef %83, i64 noundef %84, ptr noundef @.str.16)
  br label %86

86:                                               ; preds = %82
  store i8 1, ptr %13, align 1
  %87 = load i8, ptr %13, align 1
  %88 = trunc i8 %87 to i1
  %89 = zext i1 %88 to i8
  store i8 %89, ptr %13, align 1
  br label %90

90:                                               ; preds = %86
  br label %91

91:                                               ; preds = %90
  store i32 -1, ptr %12, align 4
  br label %119

92:                                               ; No predecessors!
  br label %93

93:                                               ; preds = %92
  br label %94

94:                                               ; preds = %93, %61
  %95 = load i64, ptr %18, align 8
  %96 = icmp ugt i64 %95, 0
  br i1 %96, label %97, label %102

97:                                               ; preds = %94
  %98 = load ptr, ptr %20, align 8
  %99 = load ptr, ptr %17, align 8
  %100 = load i64, ptr %18, align 8
  %101 = call i32 @H5RS_ancat(ptr noundef %98, ptr noundef %99, i64 noundef %100)
  br label %102

102:                                              ; preds = %97, %94
  %103 = load ptr, ptr %20, align 8
  %104 = load ptr, ptr %14, align 8
  %105 = call i32 @H5RS_acat(ptr noundef %103, ptr noundef %104)
  %106 = load i64, ptr %11, align 8
  %107 = icmp ugt i64 %106, 0
  br i1 %107, label %108, label %112

108:                                              ; preds = %102
  %109 = load ptr, ptr %20, align 8
  %110 = load ptr, ptr %6, align 8
  %111 = call i32 @H5RS_acat(ptr noundef %109, ptr noundef %110)
  br label %112

112:                                              ; preds = %108, %102
  %113 = load ptr, ptr %5, align 8
  %114 = load ptr, ptr %113, align 8
  %115 = call i32 @H5RS_decr(ptr noundef %114)
  %116 = load ptr, ptr %20, align 8
  %117 = load ptr, ptr %5, align 8
  store ptr %116, ptr %117, align 8
  br label %118

118:                                              ; preds = %112, %4
  br label %119

119:                                              ; preds = %118, %91
  %120 = load i32, ptr %12, align 4
  ret i32 %120
}