; Function Attrs: nounwind uwtable
define internal fastcc range(i32 -1, 1) i32 @H5G__name_move_path(ptr nocapture noundef %0, ptr noundef %1, ptr nocapture noundef readonly %2, ptr noundef %3) unnamed_addr #2 {
  %5 = load ptr, ptr %0, align 8
  %6 = tail call ptr @H5RS_get_str(ptr noundef %5) #10
  %7 = tail call i64 @strlen(ptr noundef nonnull dereferenceable(1) %1) #9
  %8 = tail call i64 @strlen(ptr noundef nonnull dereferenceable(1) %6) #9
  %9 = icmp ult i64 %7, %8
  br i1 %9, label %.preheader43, label %41

.preheader43:                                     ; preds = %4, %.preheader43
  %.036 = phi i64 [ %15, %.preheader43 ], [ 0, %4 ]
  %10 = getelementptr inbounds i8, ptr %2, i64 %.036
  %11 = load i8, ptr %10, align 1
  %12 = getelementptr inbounds i8, ptr %3, i64 %.036
  %13 = load i8, ptr %12, align 1
  %14 = icmp eq i8 %11, %13
  %15 = add i64 %.036, 1
  br i1 %14, label %.preheader43, label %.preheader

.preheader:                                       ; preds = %.preheader43, %.preheader
  %.1 = phi i64 [ %18, %.preheader ], [ %.036, %.preheader43 ]
  %16 = getelementptr inbounds i8, ptr %2, i64 %.1
  %17 = load i8, ptr %16, align 1
  %.not = icmp eq i8 %17, 47
  %18 = add i64 %.1, -1
  br i1 %.not, label %19, label %.preheader

19:                                               ; preds = %.preheader
  %20 = getelementptr inbounds i8, ptr %2, i64 %.1
  %21 = getelementptr inbounds i8, ptr %3, i64 %.1
  %22 = tail call i64 @strlen(ptr noundef nonnull dereferenceable(1) %20) #9
  %23 = add i64 %22, %7
  %24 = sub i64 %8, %23
  %25 = tail call ptr @H5RS_create(ptr noundef null) #10
  %26 = icmp eq ptr %25, null
  br i1 %26, label %27, label %31

27:                                               ; preds = %19
  %28 = load i64, ptr @H5E_SYM_g, align 8
  %29 = load i64, ptr @H5E_CANTCREATE_g, align 8
  %30 = tail call i32 (ptr, ptr, i32, i64, i64, ptr, ...) @H5E_printf_stack(ptr noundef nonnull @.str.1, ptr noundef nonnull @__func__.H5G__name_move_path, i32 noundef 609, i64 noundef %28, i64 noundef %29, ptr noundef nonnull @.str.16) #10
  br label %41

31:                                               ; preds = %19
  %.not41 = icmp eq i64 %8, %23
  br i1 %.not41, label %34, label %32

32:                                               ; preds = %31
  %33 = tail call i32 @H5RS_ancat(ptr noundef nonnull %25, ptr noundef %6, i64 noundef %24) #10
  br label %34

34:                                               ; preds = %32, %31
  %35 = tail call i32 @H5RS_acat(ptr noundef nonnull %25, ptr noundef %21) #10
  %.not42 = icmp eq i64 %7, 0
  br i1 %.not42, label %38, label %36

36:                                               ; preds = %34
  %37 = tail call i32 @H5RS_acat(ptr noundef nonnull %25, ptr noundef %1) #10
  br label %38

38:                                               ; preds = %36, %34
  %39 = load ptr, ptr %0, align 8
  %40 = tail call i32 @H5RS_decr(ptr noundef %39) #10
  store ptr %25, ptr %0, align 8
  br label %41

41:                                               ; preds = %4, %38, %27
  %.0 = phi i32 [ -1, %27 ], [ 0, %38 ], [ 0, %4 ]
  ret i32 %.0
}